; Function Attrs: mustprogress uwtable
define hidden void @_ZN3smt9theory_pb5arg_t16remove_negationsEv(ptr noundef nonnull align 8 dereferenceable(40) %0) local_unnamed_addr #4 align 2 {
  %2 = getelementptr inbounds nuw i8, ptr %0, i64 8
  br label %3

3:                                                ; preds = %22, %1
  %indvars.iv = phi i64 [ %indvars.iv.next, %22 ], [ 0, %1 ]
  %4 = load ptr, ptr %0, align 8, !tbaa !3
  %5 = icmp eq ptr %4, null
  br i1 %5, label %_ZNK6vectorISt4pairIN3sat7literalE8rationalELb1EjE4sizeEv.exit, label %6

6:                                                ; preds = %3
  %7 = getelementptr inbounds i8, ptr %4, i64 -4
  %8 = load i32, ptr %7, align 4, !tbaa !9
  %9 = zext i32 %8 to i64
  br label %_ZNK6vectorISt4pairIN3sat7literalE8rationalELb1EjE4sizeEv.exit

_ZNK6vectorISt4pairIN3sat7literalE8rationalELb1EjE4sizeEv.exit: ; preds = %3, %6
  %.0.i = phi i64 [ %9, %6 ], [ 0, %3 ]
  %10 = icmp samesign ult i64 %indvars.iv, %.0.i
  br i1 %10, label %12, label %11

11:                                               ; preds = %_ZNK6vectorISt4pairIN3sat7literalE8rationalELb1EjE4sizeEv.exit
  ret void

12:                                               ; preds = %_ZNK6vectorISt4pairIN3sat7literalE8rationalELb1EjE4sizeEv.exit
  %13 = getelementptr inbounds nuw %"struct.std::pair", ptr %4, i64 %indvars.iv
  %.sroa.0.0.copyload.i = load i32, ptr %13, align 8, !tbaa !9
  %14 = and i32 %.sroa.0.0.copyload.i, 1
  %.not = icmp eq i32 %14, 0
  br i1 %.not, label %22, label %15

15:                                               ; preds = %12
  %16 = and i32 %.sroa.0.0.copyload.i, -2
  store i32 %16, ptr %13, align 4, !tbaa !11
  %17 = getelementptr inbounds nuw i8, ptr %13, i64 8
  %18 = load ptr, ptr @_ZN8rational13g_mpq_managerE, align 8, !tbaa !19
  tail call void @_ZN11mpz_managerILb1EE3negER3mpz(ptr noundef nonnull align 8 dereferenceable(728) %18, ptr noundef nonnull align 8 dereferenceable(32) %17)
  %19 = load ptr, ptr %0, align 8, !tbaa !3
  %20 = getelementptr inbounds nuw %"struct.std::pair", ptr %19, i64 %indvars.iv, i32 1
  %21 = load ptr, ptr @_ZN8rational13g_mpq_managerE, align 8, !tbaa !19
  tail call void @_ZN11mpq_managerILb1EE3addERK3mpqS3_RS1_(ptr noundef nonnull align 8 dereferenceable(728) %21, ptr noundef nonnull align 8 dereferenceable(32) %2, ptr noundef nonnull align 8 dereferenceable(32) %20, ptr noundef nonnull align 8 dereferenceable(32) %2)
  br label %22

22:                                               ; preds = %12, %15
  %indvars.iv.next = add nuw nsw i64 %indvars.iv, 1
  br label %3, !llvm.loop !23
}